; Function Attrs: mustprogress nounwind uwtable
define void @_ZN3net10QuicFramer23SetAlternativeDecrypterENS_15EncryptionLevelEPNS_13QuicDecrypterEb(ptr noundef nonnull align 8 captures(none) dereferenceable(408) initializes((313, 315)) %0, i8 noundef signext %1, ptr noundef %2, i1 noundef zeroext %3) local_unnamed_addr #4 align 2 {
  %5 = getelementptr inbounds nuw i8, ptr %0, i64 304
  %6 = load ptr, ptr %5, align 8, !tbaa !68
  store ptr %2, ptr %5, align 8, !tbaa !68
  %.not.i.i = icmp eq ptr %6, null
  br i1 %.not.i.i, label %_ZNSt10unique_ptrIN3net13QuicDecrypterESt14default_deleteIS1_EE5resetEPS1_.exit, label %_ZNKSt14default_deleteIN3net13QuicDecrypterEEclEPS1_.exit.i.i

_ZNKSt14default_deleteIN3net13QuicDecrypterEEclEPS1_.exit.i.i: ; preds = %4
  %7 = load ptr, ptr %6, align 8, !tbaa !3
  %8 = getelementptr inbounds nuw i8, ptr %7, i64 8
  %9 = load ptr, ptr %8, align 8
  tail call void %9(ptr noundef nonnull align 8 dereferenceable(8) %6) #26
  br label %_ZNSt10unique_ptrIN3net13QuicDecrypterESt14default_deleteIS1_EE5resetEPS1_.exit

_ZNSt10unique_ptrIN3net13QuicDecrypterESt14default_deleteIS1_EE5resetEPS1_.exit: ; preds = %4, %_ZNKSt14default_deleteIN3net13QuicDecrypterEEclEPS1_.exit.i.i
  %10 = zext i1 %3 to i8
  %11 = getelementptr inbounds nuw i8, ptr %0, i64 313
  store i8 %1, ptr %11, align 1, !tbaa !271
  %12 = getelementptr inbounds nuw i8, ptr %0, i64 314
  store i8 %10, ptr %12, align 2, !tbaa !272
  ret void
}